; Function Attrs: nounwind uwtable
define void @lv_label_set_text_fmt(ptr noundef %0, ptr noundef %1, ...) local_unnamed_addr #0 {
  %3 = alloca [1 x %struct.__va_list_tag], align 16
  %.not = icmp eq ptr %1, null
  br i1 %.not, label %.preheader, label %4

.preheader:                                       ; preds = %2, %.preheader
  br label %.preheader

4:                                                ; preds = %2
  tail call void @lv_obj_invalidate(ptr noundef %0) #7
  %5 = getelementptr inbounds nuw i8, ptr %0, i64 64
  %6 = load ptr, ptr %5, align 8, !tbaa !3
  %.not14 = icmp eq ptr %6, null
  br i1 %.not14, label %13, label %7

7:                                                ; preds = %4
  %8 = getelementptr inbounds nuw i8, ptr %0, i64 116
  %9 = load i8, ptr %8, align 4
  %10 = and i8 %9, 8
  %11 = icmp eq i8 %10, 0
  br i1 %11, label %12, label %13

12:                                               ; preds = %7
  tail call void @lv_free(ptr noundef nonnull %6) #7
  store ptr null, ptr %5, align 8, !tbaa !3
  br label %13

13:                                               ; preds = %12, %7, %4
  call void @llvm.lifetime.start.p0(i64 24, ptr nonnull %3) #7
  call void @llvm.va_start.p0(ptr nonnull %3)
  %14 = call ptr @lv_text_set_text_vfmt(ptr noundef nonnull %1, ptr noundef nonnull %3) #7
  store ptr %14, ptr %5, align 8, !tbaa !3
  call void @llvm.va_end.p0(ptr nonnull %3)
  %15 = getelementptr inbounds nuw i8, ptr %0, i64 116
  %16 = load i8, ptr %15, align 4
  %17 = and i8 %16, -9
  store i8 %17, ptr %15, align 4
  call fastcc void @lv_label_refr_text(ptr noundef nonnull %0)
  call void @llvm.lifetime.end.p0(i64 24, ptr nonnull %3) #7
  ret void
}